target datalayout = "e-m:e-p270:32:32-p271:32:32-p272:64:64-i64:64-i128:128-f80:128-n8:16:32:64-S128"
target triple = "x86_64-pc-linux-gnu"

@g_context = internal global ptr null, align 8

; Function Attrs: nounwind uwtable
define dso_local i32 @cred_g_fini() #0 {
  %1 = alloca i32, align 4
  %2 = alloca i32, align 4
  %3 = alloca i32, align 4
  call void @llvm.lifetime.start.p0(i64 4, ptr %2) #9
  %4 = load ptr, ptr @g_context, align 8
  %5 = icmp ne ptr %4, null
  br i1 %5, label %7, label %6

6:                                                ; preds = %0
  store i32 0, ptr %1, align 4
  store i32 1, ptr %3, align 4
  br label %11

7:                                                ; preds = %0
  %8 = load ptr, ptr @g_context, align 8
  %9 = call i32 @plugin_context_destroy(ptr noundef %8)
  store i32 %9, ptr %2, align 4
  store ptr null, ptr @g_context, align 8
  %10 = load i32, ptr %2, align 4
  store i32 %10, ptr %1, align 4
  store i32 1, ptr %3, align 4
  br label %11

11:                                               ; preds = %7, %6
  call void @llvm.lifetime.end.p0(i64 4, ptr %2) #9
  %12 = load i32, ptr %1, align 4
  ret i32 %12
}