; Function Attrs: nounwind uwtable
define dso_local i32 @cred_g_fini() local_unnamed_addr #0 {
  %1 = load ptr, ptr @g_context, align 8
  %.not = icmp eq ptr %1, null
  br i1 %.not, label %4, label %2

2:                                                ; preds = %0
  %3 = tail call i32 @plugin_context_destroy(ptr noundef nonnull %1) #11
  store ptr null, ptr @g_context, align 8
  br label %4

4:                                                ; preds = %0, %2
  %.0 = phi i32 [ %3, %2 ], [ 0, %0 ]
  ret i32 %.0
}